target datalayout = "e-m:e-p270:32:32-p271:32:32-p272:64:64-i64:64-i128:128-f80:128-n8:16:32:64-S128"
target triple = "x86_64-pc-linux-gnu"

%struct.ObjectAddress = type { i32, i32, i32 }
%struct.RelationData = type { %struct.RelFileLocator, ptr, i32, i32, i8, i8, i8, i8, i8, i32, i32, i32, i32, ptr, ptr, i32, %struct.LockInfoData, ptr, ptr, ptr, ptr, ptr, i8, ptr, ptr, ptr, ptr, ptr, ptr, i32, ptr, i8, ptr, ptr, i32, i8, i32, ptr, i8, ptr, ptr, ptr, ptr, ptr, ptr, ptr, i32, ptr, ptr, ptr, ptr, ptr, ptr, ptr, ptr, ptr, ptr, ptr, ptr, ptr, ptr, ptr, ptr, ptr, ptr, ptr, i32, i8, ptr }
%struct.RelFileLocator = type { i32, i32, i32 }
%struct.LockInfoData = type { %struct.LockRelId }
%struct.LockRelId = type { i32, i32 }
%struct.nameData = type { [64 x i8] }
%struct.List = type { i32, i32, i32, ptr, [0 x %union.ListCell] }
%union.ListCell = type { ptr }
%struct.Query = type { i32, i32, i32, i64, i8, ptr, i32, i8, i8, i8, i8, i8, i8, i8, i8, i8, i8, i8, ptr, ptr, ptr, ptr, ptr, i32, ptr, ptr, i32, ptr, ptr, ptr, ptr, ptr, i8, ptr, ptr, ptr, ptr, ptr, ptr, ptr, i32, ptr, ptr, ptr, ptr, i32, i32 }
%struct.HeapTupleData = type { i32, %struct.ItemPointerData, i32, ptr }
%struct.ItemPointerData = type { %struct.BlockIdData, i16 }
%struct.BlockIdData = type { i16, i16 }
%struct.FormData_pg_rewrite = type { i32, %struct.nameData, i32, i8, i8, i8 }
%struct.HeapTupleHeaderData = type { %union.anon, %struct.ItemPointerData, i16, i16, i8, [0 x i8] }
%union.anon = type { %struct.HeapTupleFields }
%struct.HeapTupleFields = type { i32, i32, %union.anon.0 }
%union.anon.0 = type { i32 }

@.str.1 = private unnamed_addr constant [16 x i8] c"rewriteDefine.c\00", align 1
@object_access_hook = external global ptr, align 8
@.str.23 = private unnamed_addr constant [43 x i8] c"rule \22%s\22 for relation \22%s\22 already exists\00", align 1
@__func__.InsertRule = private unnamed_addr constant [11 x i8] c"InsertRule\00", align 1

; Function Attrs: inlinehint nounwind uwtable
define internal i64 @CStringGetDatum(ptr noundef %0) #6 {
  %2 = alloca ptr, align 8
  store ptr %0, ptr %2, align 8
  %3 = load ptr, ptr %2, align 8
  %4 = call i64 @PointerGetDatum(ptr noundef %3)
  ret i64 %4
}

; Function Attrs: inlinehint nounwind uwtable
define internal ptr @list_nth_cell(ptr noundef %0, i32 noundef %1) #6 {
  %3 = alloca ptr, align 8
  %4 = alloca i32, align 4
  store ptr %0, ptr %3, align 8
  store i32 %1, ptr %4, align 4
  %5 = load ptr, ptr %3, align 8
  %6 = getelementptr inbounds nuw %struct.List, ptr %5, i32 0, i32 3
  %7 = load ptr, ptr %6, align 8
  %8 = load i32, ptr %4, align 4
  %9 = sext i32 %8 to i64
  %10 = getelementptr inbounds %union.ListCell, ptr %7, i64 %9
  ret ptr %10
}

; Function Attrs: inlinehint nounwind uwtable
define internal ptr @GETSTRUCT(ptr noundef %0) #6 {
  %2 = alloca ptr, align 8
  store ptr %0, ptr %2, align 8
  %3 = load ptr, ptr %2, align 8
  %4 = getelementptr inbounds nuw %struct.HeapTupleData, ptr %3, i32 0, i32 3
  %5 = load ptr, ptr %4, align 8
  %6 = load ptr, ptr %2, align 8
  %7 = getelementptr inbounds nuw %struct.HeapTupleData, ptr %6, i32 0, i32 3
  %8 = load ptr, ptr %7, align 8
  %9 = getelementptr inbounds nuw %struct.HeapTupleHeaderData, ptr %8, i32 0, i32 4
  %10 = load i8, ptr %9, align 2
  %11 = zext i8 %10 to i32
  %12 = sext i32 %11 to i64
  %13 = getelementptr inbounds i8, ptr %5, i64 %12
  ret ptr %13
}

; Function Attrs: inlinehint nounwind uwtable
define internal i64 @PointerGetDatum(ptr noundef %0) #6 {
  %2 = alloca ptr, align 8
  store ptr %0, ptr %2, align 8
  %3 = load ptr, ptr %2, align 8
  %4 = ptrtoint ptr %3 to i64
  ret i64 %4
}

; Function Attrs: inlinehint nounwind uwtable
define internal i64 @BoolGetDatum(i1 noundef zeroext %0) #6 {
  %2 = alloca i8, align 1
  %3 = zext i1 %0 to i8
  store i8 %3, ptr %2, align 1
  %4 = load i8, ptr %2, align 1, !range !4, !noundef !5
  %5 = trunc i8 %4 to i1
  %6 = select i1 %5, i32 1, i32 0
  %7 = sext i32 %6 to i64
  ret i64 %7
}

; Function Attrs: inlinehint nounwind uwtable
define internal i64 @CharGetDatum(i8 noundef signext %0) #6 {
  %2 = alloca i8, align 1
  store i8 %0, ptr %2, align 1
  %3 = load i8, ptr %2, align 1
  %4 = sext i8 %3 to i64
  ret i64 %4
}

; Function Attrs: inlinehint nounwind uwtable
define internal i64 @ObjectIdGetDatum(i32 noundef %0) #6 {
  %2 = alloca i32, align 4
  store i32 %0, ptr %2, align 4
  %3 = load i32, ptr %2, align 4
  %4 = zext i32 %3 to i64
  ret i64 %4
}

; Function Attrs: inlinehint nounwind uwtable
define internal i64 @NameGetDatum(ptr noundef %0) #6 {
  %2 = alloca ptr, align 8
  store ptr %0, ptr %2, align 8
  %3 = load ptr, ptr %2, align 8
  %4 = getelementptr inbounds nuw %struct.nameData, ptr %3, i32 0, i32 0
  %5 = getelementptr inbounds [64 x i8], ptr %4, i64 0, i64 0
  %6 = call i64 @CStringGetDatum(ptr noundef %5)
  ret i64 %6
}

; Function Attrs: nounwind uwtable
define internal i32 @InsertRule(ptr noundef %0, i32 noundef %1, i32 noundef %2, i1 noundef zeroext %3, ptr noundef %4, ptr noundef %5, i1 noundef zeroext %6) #0 {
  %8 = alloca ptr, align 8
  %9 = alloca i32, align 4
  %10 = alloca i32, align 4
  %11 = alloca i8, align 1
  %12 = alloca ptr, align 8
  %13 = alloca ptr, align 8
  %14 = alloca i8, align 1
  %15 = alloca ptr, align 8
  %16 = alloca ptr, align 8
  %17 = alloca [8 x i64], align 16
  %18 = alloca [8 x i8], align 1
  %19 = alloca %struct.nameData, align 1
  %20 = alloca ptr, align 8
  %21 = alloca ptr, align 8
  %22 = alloca ptr, align 8
  %23 = alloca i32, align 4
  %24 = alloca %struct.ObjectAddress, align 4
  %25 = alloca %struct.ObjectAddress, align 4
  %26 = alloca i8, align 1
  %27 = alloca [8 x i8], align 1
  %28 = alloca ptr, align 8
  store ptr %0, ptr %8, align 8
  store i32 %1, ptr %9, align 4
  store i32 %2, ptr %10, align 4
  %29 = zext i1 %3 to i8
  store i8 %29, ptr %11, align 1
  store ptr %4, ptr %12, align 8
  store ptr %5, ptr %13, align 8
  %30 = zext i1 %6 to i8
  store i8 %30, ptr %14, align 1
  call void @llvm.lifetime.start.p0(i64 8, ptr %15) #8
  %31 = load ptr, ptr %12, align 8
  %32 = call ptr @nodeToString(ptr noundef %31)
  store ptr %32, ptr %15, align 8
  call void @llvm.lifetime.start.p0(i64 8, ptr %16) #8
  %33 = load ptr, ptr %13, align 8
  %34 = call ptr @nodeToString(ptr noundef %33)
  store ptr %34, ptr %16, align 8
  call void @llvm.lifetime.start.p0(i64 64, ptr %17) #8
  call void @llvm.lifetime.start.p0(i64 8, ptr %18) #8
  call void @llvm.memset.p0.i64(ptr align 1 %18, i8 0, i64 8, i1 false)
  call void @llvm.lifetime.start.p0(i64 64, ptr %19) #8
  call void @llvm.lifetime.start.p0(i64 8, ptr %20) #8
  call void @llvm.lifetime.start.p0(i64 8, ptr %21) #8
  call void @llvm.lifetime.start.p0(i64 8, ptr %22) #8
  call void @llvm.lifetime.start.p0(i64 4, ptr %23) #8
  call void @llvm.lifetime.start.p0(i64 12, ptr %24) #8
  call void @llvm.lifetime.start.p0(i64 12, ptr %25) #8
  call void @llvm.lifetime.start.p0(i64 1, ptr %26) #8
  store i8 0, ptr %26, align 1
  %35 = load ptr, ptr %8, align 8
  call void @namestrcpy(ptr noundef %19, ptr noundef %35)
  %36 = call i64 @NameGetDatum(ptr noundef %19)
  %37 = getelementptr inbounds [8 x i64], ptr %17, i64 0, i64 1
  store i64 %36, ptr %37, align 8
  %38 = load i32, ptr %10, align 4
  %39 = call i64 @ObjectIdGetDatum(i32 noundef %38)
  %40 = getelementptr inbounds [8 x i64], ptr %17, i64 0, i64 2
  store i64 %39, ptr %40, align 16
  %41 = load i32, ptr %9, align 4
  %42 = add i32 %41, 48
  %43 = trunc i32 %42 to i8
  %44 = call i64 @CharGetDatum(i8 noundef signext %43)
  %45 = getelementptr inbounds [8 x i64], ptr %17, i64 0, i64 3
  store i64 %44, ptr %45, align 8
  %46 = call i64 @CharGetDatum(i8 noundef signext 79)
  %47 = getelementptr inbounds [8 x i64], ptr %17, i64 0, i64 4
  store i64 %46, ptr %47, align 16
  %48 = load i8, ptr %11, align 1, !range !4, !noundef !5
  %49 = trunc i8 %48 to i1
  %50 = call i64 @BoolGetDatum(i1 noundef zeroext %49)
  %51 = getelementptr inbounds [8 x i64], ptr %17, i64 0, i64 5
  store i64 %50, ptr %51, align 8
  %52 = load ptr, ptr %15, align 8
  %53 = call ptr @cstring_to_text(ptr noundef %52)
  %54 = call i64 @PointerGetDatum(ptr noundef %53)
  %55 = getelementptr inbounds [8 x i64], ptr %17, i64 0, i64 6
  store i64 %54, ptr %55, align 16
  %56 = load ptr, ptr %16, align 8
  %57 = call ptr @cstring_to_text(ptr noundef %56)
  %58 = call i64 @PointerGetDatum(ptr noundef %57)
  %59 = getelementptr inbounds [8 x i64], ptr %17, i64 0, i64 7
  store i64 %58, ptr %59, align 8
  %60 = call ptr @table_open(i32 noundef 2618, i32 noundef 3)
  store ptr %60, ptr %20, align 8
  %61 = load i32, ptr %10, align 4
  %62 = call i64 @ObjectIdGetDatum(i32 noundef %61)
  %63 = load ptr, ptr %8, align 8
  %64 = call i64 @PointerGetDatum(ptr noundef %63)
  %65 = call ptr @SearchSysCache2(i32 noundef 60, i64 noundef %62, i64 noundef %64)
  store ptr %65, ptr %22, align 8
  %66 = load ptr, ptr %22, align 8
  %67 = icmp ne ptr %66, null
  br i1 %67, label %68, label %108

68:                                               ; preds = %7
  call void @llvm.lifetime.start.p0(i64 8, ptr %27) #8
  call void @llvm.memset.p0.i64(ptr align 1 %27, i8 0, i64 8, i1 false)
  %69 = load i8, ptr %14, align 1, !range !4, !noundef !5
  %70 = trunc i8 %69 to i1
  br i1 %70, label %86, label %71

71:                                               ; preds = %68
  br label %72

72:                                               ; preds = %71
  br i1 true, label %73, label %75

73:                                               ; preds = %72
  %74 = call zeroext i1 @errstart_cold(i32 noundef 21, ptr noundef null) #9
  br i1 %74, label %77, label %83

75:                                               ; preds = %72
  %76 = call zeroext i1 @errstart(i32 noundef 21, ptr noundef null)
  br i1 %76, label %77, label %83

77:                                               ; preds = %75, %73
  %78 = call i32 @errcode(i32 noundef 290948)
  %79 = load ptr, ptr %8, align 8
  %80 = load i32, ptr %10, align 4
  %81 = call ptr @get_rel_name(i32 noundef %80)
  %82 = call i32 (ptr, ...) @errmsg(ptr noundef @.str.23, ptr noundef %79, ptr noundef %81)
  call void @errfinish(ptr noundef @.str.1, i32 noundef 105, ptr noundef @__func__.InsertRule)
  br label %83

83:                                               ; preds = %77, %75, %73
  unreachable

84:                                               ; No predecessors!
  br label %85

85:                                               ; preds = %84
  br label %86

86:                                               ; preds = %85, %68
  %87 = getelementptr inbounds [8 x i8], ptr %27, i64 0, i64 3
  store i8 1, ptr %87, align 1
  %88 = getelementptr inbounds [8 x i8], ptr %27, i64 0, i64 5
  store i8 1, ptr %88, align 1
  %89 = getelementptr inbounds [8 x i8], ptr %27, i64 0, i64 6
  store i8 1, ptr %89, align 1
  %90 = getelementptr inbounds [8 x i8], ptr %27, i64 0, i64 7
  store i8 1, ptr %90, align 1
  %91 = load ptr, ptr %22, align 8
  %92 = load ptr, ptr %20, align 8
  %93 = getelementptr inbounds nuw %struct.RelationData, ptr %92, i32 0, i32 14
  %94 = load ptr, ptr %93, align 8
  %95 = getelementptr inbounds [8 x i64], ptr %17, i64 0, i64 0
  %96 = getelementptr inbounds [8 x i8], ptr %18, i64 0, i64 0
  %97 = getelementptr inbounds [8 x i8], ptr %27, i64 0, i64 0
  %98 = call ptr @heap_modify_tuple(ptr noundef %91, ptr noundef %94, ptr noundef %95, ptr noundef %96, ptr noundef %97)
  store ptr %98, ptr %21, align 8
  %99 = load ptr, ptr %20, align 8
  %100 = load ptr, ptr %21, align 8
  %101 = getelementptr inbounds nuw %struct.HeapTupleData, ptr %100, i32 0, i32 1
  %102 = load ptr, ptr %21, align 8
  call void @CatalogTupleUpdate(ptr noundef %99, ptr noundef %101, ptr noundef %102)
  %103 = load ptr, ptr %22, align 8
  call void @ReleaseSysCache(ptr noundef %103)
  %104 = load ptr, ptr %21, align 8
  %105 = call ptr @GETSTRUCT(ptr noundef %104)
  %106 = getelementptr inbounds nuw %struct.FormData_pg_rewrite, ptr %105, i32 0, i32 0
  %107 = load i32, ptr %106, align 4
  store i32 %107, ptr %23, align 4
  store i8 1, ptr %26, align 1
  call void @llvm.lifetime.end.p0(i64 8, ptr %27) #8
  br label %122

108:                                              ; preds = %7
  %109 = load ptr, ptr %20, align 8
  %110 = call i32 @GetNewOidWithIndex(ptr noundef %109, i32 noundef 2692, i16 noundef signext 1)
  store i32 %110, ptr %23, align 4
  %111 = load i32, ptr %23, align 4
  %112 = call i64 @ObjectIdGetDatum(i32 noundef %111)
  %113 = getelementptr inbounds [8 x i64], ptr %17, i64 0, i64 0
  store i64 %112, ptr %113, align 16
  %114 = load ptr, ptr %20, align 8
  %115 = getelementptr inbounds nuw %struct.RelationData, ptr %114, i32 0, i32 14
  %116 = load ptr, ptr %115, align 8
  %117 = getelementptr inbounds [8 x i64], ptr %17, i64 0, i64 0
  %118 = getelementptr inbounds [8 x i8], ptr %18, i64 0, i64 0
  %119 = call ptr @heap_form_tuple(ptr noundef %116, ptr noundef %117, ptr noundef %118)
  store ptr %119, ptr %21, align 8
  %120 = load ptr, ptr %20, align 8
  %121 = load ptr, ptr %21, align 8
  call void @CatalogTupleInsert(ptr noundef %120, ptr noundef %121)
  br label %122

122:                                              ; preds = %108, %86
  %123 = load ptr, ptr %21, align 8
  call void @heap_freetuple(ptr noundef %123)
  %124 = load i8, ptr %26, align 1, !range !4, !noundef !5
  %125 = trunc i8 %124 to i1
  br i1 %125, label %126, label %129

126:                                              ; preds = %122
  %127 = load i32, ptr %23, align 4
  %128 = call i64 @deleteDependencyRecordsFor(i32 noundef 2618, i32 noundef %127, i1 noundef zeroext false)
  br label %129

129:                                              ; preds = %126, %122
  %130 = getelementptr inbounds nuw %struct.ObjectAddress, ptr %24, i32 0, i32 0
  store i32 2618, ptr %130, align 4
  %131 = load i32, ptr %23, align 4
  %132 = getelementptr inbounds nuw %struct.ObjectAddress, ptr %24, i32 0, i32 1
  store i32 %131, ptr %132, align 4
  %133 = getelementptr inbounds nuw %struct.ObjectAddress, ptr %24, i32 0, i32 2
  store i32 0, ptr %133, align 4
  %134 = getelementptr inbounds nuw %struct.ObjectAddress, ptr %25, i32 0, i32 0
  store i32 1259, ptr %134, align 4
  %135 = load i32, ptr %10, align 4
  %136 = getelementptr inbounds nuw %struct.ObjectAddress, ptr %25, i32 0, i32 1
  store i32 %135, ptr %136, align 4
  %137 = getelementptr inbounds nuw %struct.ObjectAddress, ptr %25, i32 0, i32 2
  store i32 0, ptr %137, align 4
  %138 = load i32, ptr %9, align 4
  %139 = icmp eq i32 %138, 1
  %140 = select i1 %139, i32 105, i32 97
  call void @recordDependencyOn(ptr noundef %24, ptr noundef %25, i32 noundef %140)
  %141 = load ptr, ptr %13, align 8
  call void @recordDependencyOnExpr(ptr noundef %24, ptr noundef %141, ptr noundef null, i32 noundef 110)
  %142 = load ptr, ptr %12, align 8
  %143 = icmp ne ptr %142, null
  br i1 %143, label %144, label %154

144:                                              ; preds = %129
  call void @llvm.lifetime.start.p0(i64 8, ptr %28) #8
  %145 = load ptr, ptr %13, align 8
  %146 = call ptr @list_nth_cell(ptr noundef %145, i32 noundef 0)
  %147 = load ptr, ptr %146, align 8
  store ptr %147, ptr %28, align 8
  %148 = load ptr, ptr %28, align 8
  %149 = call ptr @getInsertSelectQuery(ptr noundef %148, ptr noundef null)
  store ptr %149, ptr %28, align 8
  %150 = load ptr, ptr %12, align 8
  %151 = load ptr, ptr %28, align 8
  %152 = getelementptr inbounds nuw %struct.Query, ptr %151, i32 0, i32 19
  %153 = load ptr, ptr %152, align 8
  call void @recordDependencyOnExpr(ptr noundef %24, ptr noundef %150, ptr noundef %153, i32 noundef 110)
  call void @llvm.lifetime.end.p0(i64 8, ptr %28) #8
  br label %154

154:                                              ; preds = %144, %129
  br label %155

155:                                              ; preds = %154
  %156 = load ptr, ptr @object_access_hook, align 8
  %157 = icmp ne ptr %156, null
  br i1 %157, label %158, label %160

158:                                              ; preds = %155
  %159 = load i32, ptr %23, align 4
  call void @RunObjectPostCreateHook(i32 noundef 2618, i32 noundef %159, i32 noundef 0, i1 noundef zeroext false)
  br label %160

160:                                              ; preds = %158, %155
  br label %161

161:                                              ; preds = %160
  br label %162

162:                                              ; preds = %161
  %163 = load ptr, ptr %20, align 8
  call void @table_close(ptr noundef %163, i32 noundef 3)
  %164 = load i32, ptr %23, align 4
  call void @llvm.lifetime.end.p0(i64 1, ptr %26) #8
  call void @llvm.lifetime.end.p0(i64 12, ptr %25) #8
  call void @llvm.lifetime.end.p0(i64 12, ptr %24) #8
  call void @llvm.lifetime.end.p0(i64 4, ptr %23) #8
  call void @llvm.lifetime.end.p0(i64 8, ptr %22) #8
  call void @llvm.lifetime.end.p0(i64 8, ptr %21) #8
  call void @llvm.lifetime.end.p0(i64 8, ptr %20) #8
  call void @llvm.lifetime.end.p0(i64 64, ptr %19) #8
  call void @llvm.lifetime.end.p0(i64 8, ptr %18) #8
  call void @llvm.lifetime.end.p0(i64 64, ptr %17) #8
  call void @llvm.lifetime.end.p0(i64 8, ptr %16) #8
  call void @llvm.lifetime.end.p0(i64 8, ptr %15) #8
  ret i32 %164
}