; Function Attrs: nounwind uwtable
define internal fastcc i32 @InsertRule(ptr noundef %0, i32 noundef %1, i32 noundef %2, i1 noundef zeroext %3, ptr noundef %4, ptr noundef %5, i1 noundef zeroext %6) unnamed_addr #0 {
  %8 = alloca [8 x i64], align 16
  %9 = alloca [8 x i8], align 8
  %10 = alloca %struct.nameData, align 1
  %11 = alloca %struct.ObjectAddress, align 4
  %12 = alloca %struct.ObjectAddress, align 4
  %13 = alloca [8 x i8], align 8
  %14 = tail call ptr @nodeToString(ptr noundef %4) #6
  %15 = tail call ptr @nodeToString(ptr noundef %5) #6
  call void @llvm.lifetime.start.p0(i64 64, ptr nonnull %8) #6
  call void @llvm.lifetime.start.p0(i64 8, ptr nonnull %9) #6
  store i64 0, ptr %9, align 8
  call void @llvm.lifetime.start.p0(i64 64, ptr nonnull %10) #6
  call void @llvm.lifetime.start.p0(i64 12, ptr nonnull %11) #6
  call void @llvm.lifetime.start.p0(i64 12, ptr nonnull %12) #6
  call void @namestrcpy(ptr noundef nonnull %10, ptr noundef %0) #6
  %16 = ptrtoint ptr %10 to i64
  %17 = getelementptr inbounds nuw i8, ptr %8, i64 8
  store i64 %16, ptr %17, align 8
  %18 = zext i32 %2 to i64
  %19 = getelementptr inbounds nuw i8, ptr %8, i64 16
  store i64 %18, ptr %19, align 16
  %20 = zext i32 %1 to i64
  %21 = shl i64 %20, 56
  %sext = add i64 %21, 3458764513820540928
  %22 = ashr exact i64 %sext, 56
  %23 = getelementptr inbounds nuw i8, ptr %8, i64 24
  store i64 %22, ptr %23, align 8
  %24 = getelementptr inbounds nuw i8, ptr %8, i64 32
  store i64 79, ptr %24, align 16
  %25 = zext i1 %3 to i64
  %26 = getelementptr inbounds nuw i8, ptr %8, i64 40
  store i64 %25, ptr %26, align 8
  %27 = call ptr @cstring_to_text(ptr noundef %14) #6
  %28 = ptrtoint ptr %27 to i64
  %29 = getelementptr inbounds nuw i8, ptr %8, i64 48
  store i64 %28, ptr %29, align 16
  %30 = call ptr @cstring_to_text(ptr noundef %15) #6
  %31 = ptrtoint ptr %30 to i64
  %32 = getelementptr inbounds nuw i8, ptr %8, i64 56
  store i64 %31, ptr %32, align 8
  %33 = call ptr @table_open(i32 noundef 2618, i32 noundef 3) #6
  %34 = ptrtoint ptr %0 to i64
  %35 = call ptr @SearchSysCache2(i32 noundef 60, i64 noundef %18, i64 noundef %34) #6
  %.not.not = icmp eq ptr %35, null
  br i1 %.not.not, label %.thread, label %36

36:                                               ; preds = %7
  call void @llvm.lifetime.start.p0(i64 8, ptr nonnull %13) #6
  store i64 72340168543043584, ptr %13, align 8
  br i1 %6, label %47, label %37

37:                                               ; preds = %36
  %38 = call zeroext i1 @errstart_cold(i32 noundef 21, ptr noundef null) #7
  call void @llvm.assume(i1 %38)
  %39 = call i32 @errcode(i32 noundef 290948) #6
  %40 = call ptr @get_rel_name(i32 noundef %2) #6
  %41 = call i32 (ptr, ...) @errmsg(ptr noundef nonnull @.str.23, ptr noundef %0, ptr noundef %40) #6
  call void @errfinish(ptr noundef nonnull @.str.1, i32 noundef 105, ptr noundef nonnull @__func__.InsertRule) #6
  unreachable

.thread:                                          ; preds = %7
  %42 = call i32 @GetNewOidWithIndex(ptr noundef %33, i32 noundef 2692, i16 noundef signext 1) #6
  %43 = zext i32 %42 to i64
  store i64 %43, ptr %8, align 16
  %44 = getelementptr inbounds nuw i8, ptr %33, i64 64
  %45 = load ptr, ptr %44, align 8
  %46 = call ptr @heap_form_tuple(ptr noundef %45, ptr noundef nonnull %8, ptr noundef nonnull %9) #6
  call void @CatalogTupleInsert(ptr noundef %33, ptr noundef %46) #6
  call void @heap_freetuple(ptr noundef %46) #6
  br label %59

47:                                               ; preds = %36
  %48 = getelementptr inbounds nuw i8, ptr %33, i64 64
  %49 = load ptr, ptr %48, align 8
  %50 = call ptr @heap_modify_tuple(ptr noundef nonnull %35, ptr noundef %49, ptr noundef nonnull %8, ptr noundef nonnull %9, ptr noundef nonnull %13) #6
  %51 = getelementptr inbounds nuw i8, ptr %50, i64 4
  call void @CatalogTupleUpdate(ptr noundef %33, ptr noundef nonnull %51, ptr noundef %50) #6
  call void @ReleaseSysCache(ptr noundef nonnull %35) #6
  %52 = getelementptr i8, ptr %50, i64 16
  %.val45 = load ptr, ptr %52, align 8
  %53 = getelementptr inbounds nuw i8, ptr %.val45, i64 22
  %54 = load i8, ptr %53, align 2
  %55 = zext i8 %54 to i64
  %56 = getelementptr inbounds nuw i8, ptr %.val45, i64 %55
  %57 = load i32, ptr %56, align 4
  call void @llvm.lifetime.end.p0(i64 8, ptr nonnull %13) #6
  call void @heap_freetuple(ptr noundef %50) #6
  %58 = call i64 @deleteDependencyRecordsFor(i32 noundef 2618, i32 noundef %57, i1 noundef zeroext false) #6
  br label %59

59:                                               ; preds = %.thread, %47
  %.04148 = phi i32 [ %42, %.thread ], [ %57, %47 ]
  store i32 2618, ptr %11, align 4
  %60 = getelementptr inbounds nuw i8, ptr %11, i64 4
  store i32 %.04148, ptr %60, align 4
  %61 = getelementptr inbounds nuw i8, ptr %11, i64 8
  store i32 0, ptr %61, align 4
  store i32 1259, ptr %12, align 4
  %62 = getelementptr inbounds nuw i8, ptr %12, i64 4
  store i32 %2, ptr %62, align 4
  %63 = getelementptr inbounds nuw i8, ptr %12, i64 8
  store i32 0, ptr %63, align 4
  %64 = icmp eq i32 %1, 1
  %65 = select i1 %64, i32 105, i32 97
  call void @recordDependencyOn(ptr noundef nonnull %11, ptr noundef nonnull %12, i32 noundef %65) #6
  call void @recordDependencyOnExpr(ptr noundef nonnull %11, ptr noundef %5, ptr noundef null, i32 noundef 110) #6
  %.not = icmp eq ptr %4, null
  br i1 %.not, label %72, label %66

66:                                               ; preds = %59
  %67 = getelementptr i8, ptr %5, i64 16
  %.val = load ptr, ptr %67, align 8
  %68 = load ptr, ptr %.val, align 8
  %69 = call ptr @getInsertSelectQuery(ptr noundef %68, ptr noundef null) #6
  %70 = getelementptr inbounds nuw i8, ptr %69, i64 64
  %71 = load ptr, ptr %70, align 8
  call void @recordDependencyOnExpr(ptr noundef nonnull %11, ptr noundef nonnull %4, ptr noundef %71, i32 noundef 110) #6
  br label %72

72:                                               ; preds = %59, %66
  %73 = load ptr, ptr @object_access_hook, align 8
  %.not44 = icmp eq ptr %73, null
  br i1 %.not44, label %75, label %74

74:                                               ; preds = %72
  call void @RunObjectPostCreateHook(i32 noundef 2618, i32 noundef %.04148, i32 noundef 0, i1 noundef zeroext false) #6
  br label %75

75:                                               ; preds = %74, %72
  call void @table_close(ptr noundef nonnull %33, i32 noundef 3) #6
  call void @llvm.lifetime.end.p0(i64 12, ptr nonnull %12) #6
  call void @llvm.lifetime.end.p0(i64 12, ptr nonnull %11) #6
  call void @llvm.lifetime.end.p0(i64 64, ptr nonnull %10) #6
  call void @llvm.lifetime.end.p0(i64 8, ptr nonnull %9) #6
  call void @llvm.lifetime.end.p0(i64 64, ptr nonnull %8) #6
  ret i32 %.04148
}